target datalayout = "e-m:e-p270:32:32-p271:32:32-p272:64:64-i64:64-i128:128-f80:128-n8:16:32:64-S128"
target triple = "x86_64-pc-linux-gnu"

%"class.zxing::qrcode::FinderPatternFinder" = type { i32, i32, i32, %"class.std::vector.0", %"class.zxing::Ref", %"class.std::vector.5", i8, %"class.zxing::Ref.10" }
%"class.std::vector.0" = type { %"struct.std::_Vector_base.1" }
%"struct.std::_Vector_base.1" = type { %"struct.std::_Vector_base<std::vector<zxing::qrcode::FinderPatternFinder::HorizontalCheckedResult>, std::allocator<std::vector<zxing::qrcode::FinderPatternFinder::HorizontalCheckedResult>>>::_Vector_impl" }
%"struct.std::_Vector_base<std::vector<zxing::qrcode::FinderPatternFinder::HorizontalCheckedResult>, std::allocator<std::vector<zxing::qrcode::FinderPatternFinder::HorizontalCheckedResult>>>::_Vector_impl" = type { %"struct.std::_Vector_base<std::vector<zxing::qrcode::FinderPatternFinder::HorizontalCheckedResult>, std::allocator<std::vector<zxing::qrcode::FinderPatternFinder::HorizontalCheckedResult>>>::_Vector_impl_data" }
%"struct.std::_Vector_base<std::vector<zxing::qrcode::FinderPatternFinder::HorizontalCheckedResult>, std::allocator<std::vector<zxing::qrcode::FinderPatternFinder::HorizontalCheckedResult>>>::_Vector_impl_data" = type { ptr, ptr, ptr }
%"class.zxing::Ref" = type { ptr }
%"class.std::vector.5" = type { %"struct.std::_Vector_base.6" }
%"struct.std::_Vector_base.6" = type { %"struct.std::_Vector_base<zxing::Ref<zxing::qrcode::FinderPattern>, std::allocator<zxing::Ref<zxing::qrcode::FinderPattern>>>::_Vector_impl" }
%"struct.std::_Vector_base<zxing::Ref<zxing::qrcode::FinderPattern>, std::allocator<zxing::Ref<zxing::qrcode::FinderPattern>>>::_Vector_impl" = type { %"struct.std::_Vector_base<zxing::Ref<zxing::qrcode::FinderPattern>, std::allocator<zxing::Ref<zxing::qrcode::FinderPattern>>>::_Vector_impl_data" }
%"struct.std::_Vector_base<zxing::Ref<zxing::qrcode::FinderPattern>, std::allocator<zxing::Ref<zxing::qrcode::FinderPattern>>>::_Vector_impl_data" = type { ptr, ptr, ptr }
%"class.zxing::Ref.10" = type { ptr }

@_ZN5zxing6qrcode19FinderPatternFinder18INTEGER_MATH_SHIFTE = hidden global i32 8, align 4

; Function Attrs: mustprogress nounwind uwtable
define hidden noundef zeroext i1 @_ZN5zxing6qrcode19FinderPatternFinder17foundPatternCrossEPi(ptr noundef nonnull align 8 dereferenceable(88) %0, ptr noundef %1) #1 align 2 {
  %3 = alloca i1, align 1
  %4 = alloca ptr, align 8
  %5 = alloca ptr, align 8
  %6 = alloca i32, align 4
  %7 = alloca [5 x i32], align 16
  %8 = alloca i32, align 4
  %9 = alloca i32, align 4
  %10 = alloca i32, align 4
  %11 = alloca i32, align 4
  %12 = alloca i32, align 4
  %13 = alloca i32, align 4
  %14 = alloca i8, align 1
  %15 = alloca i8, align 1
  store ptr %0, ptr %4, align 8
  store ptr %1, ptr %5, align 8
  %16 = load ptr, ptr %4, align 8
  store i32 0, ptr %6, align 4
  store i32 3, ptr %8, align 4
  %17 = load i32, ptr @_ZN5zxing6qrcode19FinderPatternFinder18INTEGER_MATH_SHIFTE, align 4
  %18 = load i32, ptr %8, align 4
  %19 = shl i32 %18, %17
  store i32 %19, ptr %8, align 4
  store i32 0, ptr %9, align 4
  br label %20

20:                                               ; preds = %49, %2
  %21 = load i32, ptr %9, align 4
  %22 = icmp slt i32 %21, 5
  br i1 %22, label %23, label %52

23:                                               ; preds = %20
  %24 = load ptr, ptr %5, align 8
  %25 = load i32, ptr %9, align 4
  %26 = sext i32 %25 to i64
  %27 = getelementptr inbounds i32, ptr %24, i64 %26
  %28 = load i32, ptr %27, align 4
  %29 = icmp sle i32 %28, 0
  br i1 %29, label %30, label %31

30:                                               ; preds = %23
  store i1 false, ptr %3, align 1
  br label %153

31:                                               ; preds = %23
  %32 = load ptr, ptr %5, align 8
  %33 = load i32, ptr %9, align 4
  %34 = sext i32 %33 to i64
  %35 = getelementptr inbounds i32, ptr %32, i64 %34
  %36 = load i32, ptr %35, align 4
  %37 = load i32, ptr @_ZN5zxing6qrcode19FinderPatternFinder18INTEGER_MATH_SHIFTE, align 4
  %38 = shl i32 %36, %37
  %39 = load i32, ptr %9, align 4
  %40 = sext i32 %39 to i64
  %41 = getelementptr inbounds [5 x i32], ptr %7, i64 0, i64 %40
  store i32 %38, ptr %41, align 4
  %42 = load ptr, ptr %5, align 8
  %43 = load i32, ptr %9, align 4
  %44 = sext i32 %43 to i64
  %45 = getelementptr inbounds i32, ptr %42, i64 %44
  %46 = load i32, ptr %45, align 4
  %47 = load i32, ptr %6, align 4
  %48 = add nsw i32 %47, %46
  store i32 %48, ptr %6, align 4
  br label %49

49:                                               ; preds = %31
  %50 = load i32, ptr %9, align 4
  %51 = add nsw i32 %50, 1
  store i32 %51, ptr %9, align 4
  br label %20, !llvm.loop !10

52:                                               ; preds = %20
  %53 = load i32, ptr %6, align 4
  %54 = icmp slt i32 %53, 7
  br i1 %54, label %55, label %56

55:                                               ; preds = %52
  store i1 false, ptr %3, align 1
  br label %153

56:                                               ; preds = %52
  %57 = getelementptr inbounds %"class.zxing::qrcode::FinderPatternFinder", ptr %16, i32 0, i32 1
  store i32 4, ptr %57, align 4
  %58 = load i32, ptr %6, align 4
  %59 = load i32, ptr @_ZN5zxing6qrcode19FinderPatternFinder18INTEGER_MATH_SHIFTE, align 4
  %60 = shl i32 %58, %59
  store i32 %60, ptr %6, align 4
  %61 = load i32, ptr %6, align 4
  %62 = getelementptr inbounds [5 x i32], ptr %7, i64 0, i64 0
  %63 = load i32, ptr %62, align 16
  %64 = sub nsw i32 %61, %63
  %65 = getelementptr inbounds [5 x i32], ptr %7, i64 0, i64 4
  %66 = load i32, ptr %65, align 16
  %67 = sub nsw i32 %64, %66
  %68 = sdiv i32 %67, 5
  store i32 %68, ptr %10, align 4
  %69 = load i32, ptr %10, align 4
  store i32 %69, ptr %11, align 4
  %70 = load i32, ptr %10, align 4
  %71 = load i32, ptr %8, align 4
  %72 = icmp sgt i32 %70, %71
  br i1 %72, label %73, label %76

73:                                               ; preds = %56
  %74 = load i32, ptr %10, align 4
  %75 = sdiv i32 %74, 2
  store i32 %75, ptr %11, align 4
  br label %76

76:                                               ; preds = %73, %56
  %77 = getelementptr inbounds [5 x i32], ptr %7, i64 0, i64 0
  %78 = load i32, ptr %77, align 16
  store i32 %78, ptr %12, align 4
  %79 = getelementptr inbounds [5 x i32], ptr %7, i64 0, i64 4
  %80 = load i32, ptr %79, align 16
  store i32 %80, ptr %13, align 4
  %81 = load i32, ptr %10, align 4
  %82 = load i32, ptr %12, align 4
  %83 = sub nsw i32 %81, %82
  %84 = call i32 @llvm.abs.i32(i32 %83, i1 true)
  %85 = load i32, ptr %11, align 4
  %86 = icmp sle i32 %84, %85
  %87 = zext i1 %86 to i8
  store i8 %87, ptr %14, align 1
  %88 = load i32, ptr %10, align 4
  %89 = load i32, ptr %13, align 4
  %90 = sub nsw i32 %88, %89
  %91 = call i32 @llvm.abs.i32(i32 %90, i1 true)
  %92 = load i32, ptr %11, align 4
  %93 = icmp sle i32 %91, %92
  %94 = zext i1 %93 to i8
  store i8 %94, ptr %15, align 1
  %95 = load i8, ptr %14, align 1
  %96 = trunc i8 %95 to i1
  br i1 %96, label %97, label %112

97:                                               ; preds = %76
  %98 = load i8, ptr %15, align 1
  %99 = trunc i8 %98 to i1
  br i1 %99, label %100, label %104

100:                                              ; preds = %97
  %101 = load i32, ptr %6, align 4
  %102 = sdiv i32 %101, 7
  store i32 %102, ptr %10, align 4
  %103 = getelementptr inbounds %"class.zxing::qrcode::FinderPatternFinder", ptr %16, i32 0, i32 1
  store i32 0, ptr %103, align 4
  br label %111

104:                                              ; preds = %97
  %105 = load i32, ptr %6, align 4
  %106 = getelementptr inbounds [5 x i32], ptr %7, i64 0, i64 4
  %107 = load i32, ptr %106, align 16
  %108 = sub nsw i32 %105, %107
  %109 = sdiv i32 %108, 6
  store i32 %109, ptr %10, align 4
  %110 = getelementptr inbounds %"class.zxing::qrcode::FinderPatternFinder", ptr %16, i32 0, i32 1
  store i32 2, ptr %110, align 4
  br label %111

111:                                              ; preds = %104, %100
  br label %125

112:                                              ; preds = %76
  %113 = load i8, ptr %15, align 1
  %114 = trunc i8 %113 to i1
  br i1 %114, label %115, label %122

115:                                              ; preds = %112
  %116 = load i32, ptr %6, align 4
  %117 = getelementptr inbounds [5 x i32], ptr %7, i64 0, i64 0
  %118 = load i32, ptr %117, align 16
  %119 = sub nsw i32 %116, %118
  %120 = sdiv i32 %119, 6
  store i32 %120, ptr %10, align 4
  %121 = getelementptr inbounds %"class.zxing::qrcode::FinderPatternFinder", ptr %16, i32 0, i32 1
  store i32 1, ptr %121, align 4
  br label %124

122:                                              ; preds = %112
  %123 = getelementptr inbounds %"class.zxing::qrcode::FinderPatternFinder", ptr %16, i32 0, i32 1
  store i32 3, ptr %123, align 4
  br label %124

124:                                              ; preds = %122, %115
  br label %125

125:                                              ; preds = %124, %111
  %126 = load i32, ptr %10, align 4
  %127 = getelementptr inbounds [5 x i32], ptr %7, i64 0, i64 1
  %128 = load i32, ptr %127, align 4
  %129 = sub nsw i32 %126, %128
  %130 = call i32 @llvm.abs.i32(i32 %129, i1 true)
  %131 = load i32, ptr %11, align 4
  %132 = icmp sle i32 %130, %131
  br i1 %132, label %133, label %152

133:                                              ; preds = %125
  %134 = load i32, ptr %10, align 4
  %135 = mul nsw i32 3, %134
  %136 = getelementptr inbounds [5 x i32], ptr %7, i64 0, i64 2
  %137 = load i32, ptr %136, align 8
  %138 = sub nsw i32 %135, %137
  %139 = call i32 @llvm.abs.i32(i32 %138, i1 true)
  %140 = load i32, ptr %11, align 4
  %141 = mul nsw i32 3, %140
  %142 = icmp sle i32 %139, %141
  br i1 %142, label %143, label %152

143:                                              ; preds = %133
  %144 = load i32, ptr %10, align 4
  %145 = getelementptr inbounds [5 x i32], ptr %7, i64 0, i64 3
  %146 = load i32, ptr %145, align 4
  %147 = sub nsw i32 %144, %146
  %148 = call i32 @llvm.abs.i32(i32 %147, i1 true)
  %149 = load i32, ptr %11, align 4
  %150 = icmp sle i32 %148, %149
  br i1 %150, label %151, label %152

151:                                              ; preds = %143
  store i1 true, ptr %3, align 1
  br label %153

152:                                              ; preds = %143, %133, %125
  store i1 false, ptr %3, align 1
  br label %153

153:                                              ; preds = %152, %151, %55, %30
  %154 = load i1, ptr %3, align 1
  ret i1 %154
}