; Function Attrs: mustprogress nofree norecurse nosync nounwind memory(read, argmem: readwrite, inaccessiblemem: none) uwtable
define hidden noundef zeroext i1 @_ZN5zxing6qrcode19FinderPatternFinder17foundPatternCrossEPi(ptr nocapture noundef nonnull writeonly align 8 dereferenceable(88) %0, ptr nocapture noundef readonly %1) local_unnamed_addr #2 align 2 {
  %3 = alloca [5 x i32], align 16
  %4 = load i32, ptr @_ZN5zxing6qrcode19FinderPatternFinder18INTEGER_MATH_SHIFTE, align 4
  %5 = shl i32 3, %4
  br label %6

6:                                                ; preds = %2, %10
  %indvars.iv = phi i64 [ 0, %2 ], [ %indvars.iv.next, %10 ]
  %.03751 = phi i32 [ 0, %2 ], [ %13, %10 ]
  %7 = getelementptr inbounds i32, ptr %1, i64 %indvars.iv
  %8 = load i32, ptr %7, align 4
  %9 = icmp slt i32 %8, 1
  br i1 %9, label %.loopexit, label %10

10:                                               ; preds = %6
  %11 = shl i32 %8, %4
  %12 = getelementptr inbounds [5 x i32], ptr %3, i64 0, i64 %indvars.iv
  store i32 %11, ptr %12, align 4
  %13 = add nuw nsw i32 %8, %.03751
  %indvars.iv.next = add nuw nsw i64 %indvars.iv, 1
  %exitcond.not = icmp eq i64 %indvars.iv.next, 5
  br i1 %exitcond.not, label %14, label %6, !llvm.loop !6

14:                                               ; preds = %10
  %15 = icmp slt i32 %13, 7
  br i1 %15, label %.loopexit, label %16

16:                                               ; preds = %14
  %17 = getelementptr inbounds i8, ptr %0, i64 4
  %18 = shl i32 %13, %4
  %19 = load i32, ptr %3, align 16
  %20 = getelementptr inbounds i8, ptr %3, i64 16
  %21 = load i32, ptr %20, align 16
  %22 = add i32 %19, %21
  %23 = sub i32 %18, %22
  %24 = sdiv i32 %23, 5
  %25 = icmp sgt i32 %24, %5
  %26 = sdiv i32 %23, 10
  %.039 = select i1 %25, i32 %26, i32 %24
  %27 = sub nsw i32 %24, %19
  %28 = tail call i32 @llvm.abs.i32(i32 %27, i1 true)
  %.not = icmp sgt i32 %28, %.039
  %29 = sub nsw i32 %24, %21
  %30 = tail call i32 @llvm.abs.i32(i32 %29, i1 true)
  %.not43 = icmp sgt i32 %30, %.039
  br i1 %.not, label %37, label %31

31:                                               ; preds = %16
  br i1 %.not43, label %34, label %32

32:                                               ; preds = %31
  %33 = sdiv i32 %18, 7
  br label %41

34:                                               ; preds = %31
  %35 = sub nsw i32 %18, %21
  %36 = sdiv i32 %35, 6
  br label %41

37:                                               ; preds = %16
  br i1 %.not43, label %41, label %38

38:                                               ; preds = %37
  %39 = sub nsw i32 %18, %19
  %40 = sdiv i32 %39, 6
  br label %41

41:                                               ; preds = %37, %38, %32, %34
  %.sink = phi i32 [ 1, %38 ], [ 0, %32 ], [ 2, %34 ], [ 3, %37 ]
  %.040 = phi i32 [ %40, %38 ], [ %33, %32 ], [ %36, %34 ], [ %24, %37 ]
  store i32 %.sink, ptr %17, align 4
  %42 = getelementptr inbounds i8, ptr %3, i64 4
  %43 = load i32, ptr %42, align 4
  %44 = sub nsw i32 %.040, %43
  %45 = tail call i32 @llvm.abs.i32(i32 %44, i1 true)
  %.not44 = icmp sgt i32 %45, %.039
  br i1 %.not44, label %58, label %46

46:                                               ; preds = %41
  %47 = mul nsw i32 %.040, 3
  %48 = getelementptr inbounds i8, ptr %3, i64 8
  %49 = load i32, ptr %48, align 8
  %50 = sub nsw i32 %47, %49
  %51 = tail call i32 @llvm.abs.i32(i32 %50, i1 true)
  %52 = mul nuw nsw i32 %.039, 3
  %.not45 = icmp ugt i32 %51, %52
  br i1 %.not45, label %58, label %53

53:                                               ; preds = %46
  %54 = getelementptr inbounds i8, ptr %3, i64 12
  %55 = load i32, ptr %54, align 4
  %56 = sub nsw i32 %.040, %55
  %57 = tail call i32 @llvm.abs.i32(i32 %56, i1 true)
  %.not46 = icmp ugt i32 %57, %.039
  br i1 %.not46, label %58, label %.loopexit

58:                                               ; preds = %53, %46, %41
  br label %.loopexit

.loopexit:                                        ; preds = %6, %53, %14, %58
  %.0 = phi i1 [ false, %58 ], [ false, %14 ], [ true, %53 ], [ false, %6 ]
  ret i1 %.0
}